target datalayout = "e-m:e-p270:32:32-p271:32:32-p272:64:64-i64:64-i128:128-f80:128-n8:16:32:64-S128"
target triple = "x86_64-pc-linux-gnu"

%struct.expert_field = type { i32, i32 }

@hf_nan_attr_identity_cipher_version = internal global i32 0, align 4
@hf_nan_attr_identity_resolution_nonce = internal global i32 0, align 4
@hf_nan_attr_identity_resolution_tag = internal global i32 0, align 4
@hf_nan_attr_reserved = internal global i32 0, align 4
@ei_nan_elem_len_invalid = internal global %struct.expert_field zeroinitializer, align 4

; Function Attrs: null_pointer_is_valid sspstrong uwtable
define internal void @dissect_attr_nan_identity_resolution(ptr noundef %0, ptr noundef %1, i32 noundef %2, i16 noundef zeroext %3, ptr noundef %4) #0 {
  %6 = alloca ptr, align 8
  %7 = alloca ptr, align 8
  %8 = alloca i32, align 4
  %9 = alloca i16, align 2
  %10 = alloca ptr, align 8
  %11 = alloca i8, align 1
  store ptr %0, ptr %6, align 8
  store ptr %1, ptr %7, align 8
  store i32 %2, ptr %8, align 4
  store i16 %3, ptr %9, align 2
  store ptr %4, ptr %10, align 8
  %12 = load i16, ptr %9, align 2
  %13 = zext i16 %12 to i32
  %14 = icmp slt i32 %13, 1
  br i1 %14, label %15, label %19

15:                                               ; preds = %5
  %16 = load ptr, ptr %10, align 8
  %17 = load ptr, ptr %6, align 8
  %18 = call ptr @expert_add_info(ptr noundef %16, ptr noundef %17, ptr noundef @ei_nan_elem_len_invalid)
  br label %56

19:                                               ; preds = %5
  %20 = load ptr, ptr %6, align 8
  %21 = load i32, ptr @hf_nan_attr_identity_cipher_version, align 4
  %22 = load ptr, ptr %7, align 8
  %23 = load i32, ptr %8, align 4
  %24 = add i32 %23, 3
  %25 = call ptr @proto_tree_add_item(ptr noundef %20, i32 noundef %21, ptr noundef %22, i32 noundef %24, i32 noundef 1, i32 noundef -2147483648)
  call void @llvm.lifetime.start.p0(i64 1, ptr %11) #5
  %26 = load ptr, ptr %7, align 8
  %27 = load i32, ptr %8, align 4
  %28 = add i32 %27, 3
  %29 = call zeroext i8 @tvb_get_uint8(ptr noundef %26, i32 noundef %28)
  store i8 %29, ptr %11, align 1
  %30 = load i8, ptr %11, align 1
  %31 = zext i8 %30 to i32
  switch i32 %31, label %45 [
    i32 0, label %32
  ]

32:                                               ; preds = %19
  %33 = load ptr, ptr %6, align 8
  %34 = load i32, ptr @hf_nan_attr_identity_resolution_nonce, align 4
  %35 = load ptr, ptr %7, align 8
  %36 = load i32, ptr %8, align 4
  %37 = add i32 %36, 4
  %38 = call ptr @proto_tree_add_item(ptr noundef %33, i32 noundef %34, ptr noundef %35, i32 noundef %37, i32 noundef 8, i32 noundef 0)
  %39 = load ptr, ptr %6, align 8
  %40 = load i32, ptr @hf_nan_attr_identity_resolution_tag, align 4
  %41 = load ptr, ptr %7, align 8
  %42 = load i32, ptr %8, align 4
  %43 = add i32 %42, 12
  %44 = call ptr @proto_tree_add_item(ptr noundef %39, i32 noundef %40, ptr noundef %41, i32 noundef %43, i32 noundef 8, i32 noundef 0)
  br label %55

45:                                               ; preds = %19
  %46 = load ptr, ptr %6, align 8
  %47 = load i32, ptr @hf_nan_attr_reserved, align 4
  %48 = load ptr, ptr %7, align 8
  %49 = load i32, ptr %8, align 4
  %50 = add i32 %49, 3
  %51 = load i16, ptr %9, align 2
  %52 = zext i16 %51 to i32
  %53 = sub i32 %52, 1
  %54 = call ptr @proto_tree_add_item(ptr noundef %46, i32 noundef %47, ptr noundef %48, i32 noundef %50, i32 noundef %53, i32 noundef 0)
  br label %55

55:                                               ; preds = %45, %32
  call void @llvm.lifetime.end.p0(i64 1, ptr %11) #5
  br label %56

56:                                               ; preds = %55, %15
  ret void
}