; Function Attrs: null_pointer_is_valid sspstrong uwtable
define internal fastcc void @dissect_attr_nan_identity_resolution(ptr noundef %0, ptr noundef %1, i32 noundef %2, i16 noundef zeroext %3, ptr noundef %4) unnamed_addr #0 {
  %6 = zext i16 %3 to i32
  %7 = icmp eq i16 %3, 0
  br i1 %7, label %8, label %10

8:                                                ; preds = %5
  %9 = tail call ptr @expert_add_info(ptr noundef %4, ptr noundef %0, ptr noundef nonnull @ei_nan_elem_len_invalid)
  br label %26

10:                                               ; preds = %5
  %11 = load i32, ptr @hf_nan_attr_identity_cipher_version, align 4
  %12 = add i32 %2, 3
  %13 = tail call ptr @proto_tree_add_item(ptr noundef %0, i32 noundef %11, ptr noundef %1, i32 noundef %12, i32 noundef 1, i32 noundef -2147483648)
  %14 = tail call zeroext i8 @tvb_get_uint8(ptr noundef %1, i32 noundef %12)
  %cond = icmp eq i8 %14, 0
  br i1 %cond, label %15, label %22

15:                                               ; preds = %10
  %16 = load i32, ptr @hf_nan_attr_identity_resolution_nonce, align 4
  %17 = add i32 %2, 4
  %18 = tail call ptr @proto_tree_add_item(ptr noundef %0, i32 noundef %16, ptr noundef %1, i32 noundef %17, i32 noundef 8, i32 noundef 0)
  %19 = load i32, ptr @hf_nan_attr_identity_resolution_tag, align 4
  %20 = add i32 %2, 12
  %21 = tail call ptr @proto_tree_add_item(ptr noundef %0, i32 noundef %19, ptr noundef %1, i32 noundef %20, i32 noundef 8, i32 noundef 0)
  br label %26

22:                                               ; preds = %10
  %23 = load i32, ptr @hf_nan_attr_reserved, align 4
  %24 = add nsw i32 %6, -1
  %25 = tail call ptr @proto_tree_add_item(ptr noundef %0, i32 noundef %23, ptr noundef %1, i32 noundef %12, i32 noundef %24, i32 noundef 0)
  br label %26

26:                                               ; preds = %15, %22, %8
  ret void
}